target datalayout = "e-m:e-p270:32:32-p271:32:32-p272:64:64-i64:64-i128:128-f80:128-n8:16:32:64-S128"
target triple = "x86_64-unknown-linux-gnu"

%struct.VirtIODevice = type { %struct.DeviceState, ptr, i8, i8, i16, i64, i64, i64, i64, ptr, i16, i32, i32, ptr, %struct.MemoryListener, i16, i8, i8, i8, i8, i8, i8, i8, i8, i8, ptr, ptr, i8, i8, ptr, ptr, %union.anon.1, %struct.EventNotifier, i8 }
%struct.DeviceState = type { %struct.Object, ptr, ptr, i8, i8, i64, ptr, i32, i8, ptr, %struct.NamedGPIOListHead, %struct.NamedClockListHead, %struct.BusStateHead, i32, i32, i32, %struct.ResettableState, ptr, %struct.MemReentrancyGuard }
%struct.Object = type { ptr, ptr, ptr, i32, ptr }
%struct.NamedGPIOListHead = type { ptr }
%struct.NamedClockListHead = type { ptr }
%struct.BusStateHead = type { ptr }
%struct.ResettableState = type { i32, i8, i8 }
%struct.MemReentrancyGuard = type { i8 }
%struct.MemoryListener = type { ptr, ptr, ptr, ptr, ptr, ptr, ptr, ptr, ptr, ptr, ptr, ptr, ptr, ptr, ptr, ptr, ptr, i32, ptr, ptr, %union.anon, %union.anon.0 }
%union.anon = type { %struct.QTailQLink }
%struct.QTailQLink = type { ptr, ptr }
%union.anon.0 = type { %struct.QTailQLink }
%union.anon.1 = type { %struct.QTailQLink }
%struct.EventNotifier = type { i32, i32, i8 }
%struct.VirtQueue = type { %struct.VRing, ptr, i16, i8, i16, i8, i16, i8, i16, i8, i8, i16, i32, i16, ptr, ptr, %struct.EventNotifier, %struct.EventNotifier, i8, %struct.anon }
%struct.VRing = type { i32, i32, i32, i64, i64, i64, ptr }
%struct.anon = type { ptr, ptr }

; Function Attrs: nounwind sspstrong uwtable
define dso_local i64 @virtio_queue_get_avail_addr(ptr noundef %vdev, i32 noundef %n) #0 {
entry:
  %vdev.addr = alloca ptr, align 8
  %n.addr = alloca i32, align 4
  store ptr %vdev, ptr %vdev.addr, align 8
  store i32 %n, ptr %n.addr, align 4
  %0 = load ptr, ptr %vdev.addr, align 8
  %vq = getelementptr inbounds %struct.VirtIODevice, ptr %0, i32 0, i32 13
  %1 = load ptr, ptr %vq, align 8
  %2 = load i32, ptr %n.addr, align 4
  %idxprom = sext i32 %2 to i64
  %arrayidx = getelementptr %struct.VirtQueue, ptr %1, i64 %idxprom
  %vring = getelementptr inbounds %struct.VirtQueue, ptr %arrayidx, i32 0, i32 0
  %avail = getelementptr inbounds %struct.VRing, ptr %vring, i32 0, i32 4
  %3 = load i64, ptr %avail, align 8
  ret i64 %3
}